; Function Attrs: nounwind uwtable
define dso_local ptr @getenv_safe(ptr noundef %0, ptr noundef readonly captures(none) %1) local_unnamed_addr #0 {
  %3 = tail call ptr @getenv(ptr noundef %1) #14
  %.not = icmp eq ptr %3, null
  br i1 %.not, label %12, label %4

4:                                                ; preds = %2
  %5 = tail call ptr @strvec_push(ptr noundef %0, ptr noundef nonnull %3) #14
  %6 = load ptr, ptr %0, align 8, !tbaa !4
  %7 = getelementptr inbounds nuw i8, ptr %0, i64 8
  %8 = load i64, ptr %7, align 8, !tbaa !11
  %9 = getelementptr ptr, ptr %6, i64 %8
  %10 = getelementptr i8, ptr %9, i64 -8
  %11 = load ptr, ptr %10, align 8, !tbaa !12
  br label %12

12:                                               ; preds = %2, %4
  %.0 = phi ptr [ %11, %4 ], [ null, %2 ]
  ret ptr %.0
}